target datalayout = "e-m:e-p270:32:32-p271:32:32-p272:64:64-i64:64-i128:128-f80:128-n8:16:32:64-S128"
target triple = "x86_64-pc-linux-gnu"

%struct.sbcast_cred_arg_t = type { i32, i32, i32, ptr, i64, ptr }
%struct.sbcast_cred = type { i64, %struct.sbcast_cred_arg_t, ptr, ptr, i8 }

@.str.37 = private unnamed_addr constant [24 x i8] c"Sbcast_cred: JobId   %u\00", align 1
@.str.38 = private unnamed_addr constant [25 x i8] c"Sbcast_cred: HetJobId %u\00", align 1
@.str.39 = private unnamed_addr constant [24 x i8] c"Sbcast_cred: StepId  %u\00", align 1
@.str.40 = private unnamed_addr constant [24 x i8] c"Sbcast_cred: Nodes   %s\00", align 1
@.str.41 = private unnamed_addr constant [24 x i8] c"Sbcast_cred: ctime   %s\00", align 1
@.str.42 = private unnamed_addr constant [24 x i8] c"Sbcast_cred: Expire  %s\00", align 1

; Function Attrs: nounwind uwtable
define dso_local void @print_sbcast_cred(ptr noundef %0) #0 {
  %2 = alloca ptr, align 8
  store ptr %0, ptr %2, align 8
  br label %3

3:                                                ; preds = %1
  br label %4

4:                                                ; preds = %3
  %5 = call i32 @get_log_level()
  %6 = icmp sge i32 %5, 3
  br i1 %6, label %7, label %12

7:                                                ; preds = %4
  %8 = load ptr, ptr %2, align 8
  %9 = getelementptr inbounds nuw %struct.sbcast_cred, ptr %8, i32 0, i32 1
  %10 = getelementptr inbounds nuw %struct.sbcast_cred_arg_t, ptr %9, i32 0, i32 0
  %11 = load i32, ptr %10, align 8
  call void (i32, ptr, ...) @log_var(i32 noundef 3, ptr noundef @.str.37, i32 noundef %11)
  br label %12

12:                                               ; preds = %7, %4
  br label %13

13:                                               ; preds = %12
  br label %14

14:                                               ; preds = %13
  br label %15

15:                                               ; preds = %14
  br label %16

16:                                               ; preds = %15
  %17 = call i32 @get_log_level()
  %18 = icmp sge i32 %17, 3
  br i1 %18, label %19, label %24

19:                                               ; preds = %16
  %20 = load ptr, ptr %2, align 8
  %21 = getelementptr inbounds nuw %struct.sbcast_cred, ptr %20, i32 0, i32 1
  %22 = getelementptr inbounds nuw %struct.sbcast_cred_arg_t, ptr %21, i32 0, i32 1
  %23 = load i32, ptr %22, align 4
  call void (i32, ptr, ...) @log_var(i32 noundef 3, ptr noundef @.str.38, i32 noundef %23)
  br label %24

24:                                               ; preds = %19, %16
  br label %25

25:                                               ; preds = %24
  br label %26

26:                                               ; preds = %25
  br label %27

27:                                               ; preds = %26
  br label %28

28:                                               ; preds = %27
  %29 = call i32 @get_log_level()
  %30 = icmp sge i32 %29, 3
  br i1 %30, label %31, label %36

31:                                               ; preds = %28
  %32 = load ptr, ptr %2, align 8
  %33 = getelementptr inbounds nuw %struct.sbcast_cred, ptr %32, i32 0, i32 1
  %34 = getelementptr inbounds nuw %struct.sbcast_cred_arg_t, ptr %33, i32 0, i32 2
  %35 = load i32, ptr %34, align 8
  call void (i32, ptr, ...) @log_var(i32 noundef 3, ptr noundef @.str.39, i32 noundef %35)
  br label %36

36:                                               ; preds = %31, %28
  br label %37

37:                                               ; preds = %36
  br label %38

38:                                               ; preds = %37
  br label %39

39:                                               ; preds = %38
  br label %40

40:                                               ; preds = %39
  %41 = call i32 @get_log_level()
  %42 = icmp sge i32 %41, 3
  br i1 %42, label %43, label %48

43:                                               ; preds = %40
  %44 = load ptr, ptr %2, align 8
  %45 = getelementptr inbounds nuw %struct.sbcast_cred, ptr %44, i32 0, i32 1
  %46 = getelementptr inbounds nuw %struct.sbcast_cred_arg_t, ptr %45, i32 0, i32 5
  %47 = load ptr, ptr %46, align 8
  call void (i32, ptr, ...) @log_var(i32 noundef 3, ptr noundef @.str.40, ptr noundef %47)
  br label %48

48:                                               ; preds = %43, %40
  br label %49

49:                                               ; preds = %48
  br label %50

50:                                               ; preds = %49
  br label %51

51:                                               ; preds = %50
  br label %52

52:                                               ; preds = %51
  %53 = call i32 @get_log_level()
  %54 = icmp sge i32 %53, 3
  br i1 %54, label %55, label %59

55:                                               ; preds = %52
  %56 = load ptr, ptr %2, align 8
  %57 = getelementptr inbounds nuw %struct.sbcast_cred, ptr %56, i32 0, i32 0
  %58 = call ptr @slurm_ctime2(ptr noundef %57)
  call void (i32, ptr, ...) @log_var(i32 noundef 3, ptr noundef @.str.41, ptr noundef %58)
  br label %59

59:                                               ; preds = %55, %52
  br label %60

60:                                               ; preds = %59
  br label %61

61:                                               ; preds = %60
  br label %62

62:                                               ; preds = %61
  br label %63

63:                                               ; preds = %62
  %64 = call i32 @get_log_level()
  %65 = icmp sge i32 %64, 3
  br i1 %65, label %66, label %71

66:                                               ; preds = %63
  %67 = load ptr, ptr %2, align 8
  %68 = getelementptr inbounds nuw %struct.sbcast_cred, ptr %67, i32 0, i32 1
  %69 = getelementptr inbounds nuw %struct.sbcast_cred_arg_t, ptr %68, i32 0, i32 4
  %70 = call ptr @slurm_ctime2(ptr noundef %69)
  call void (i32, ptr, ...) @log_var(i32 noundef 3, ptr noundef @.str.42, ptr noundef %70)
  br label %71

71:                                               ; preds = %66, %63
  br label %72

72:                                               ; preds = %71
  br label %73

73:                                               ; preds = %72
  ret void
}