; Function Attrs: nounwind uwtable
define dso_local void @print_sbcast_cred(ptr noundef %0) local_unnamed_addr #0 {
  %2 = tail call i32 @get_log_level() #11
  %3 = icmp sgt i32 %2, 2
  br i1 %3, label %4, label %7

4:                                                ; preds = %1
  %5 = getelementptr inbounds nuw i8, ptr %0, i64 8
  %6 = load i32, ptr %5, align 8
  tail call void (i32, ptr, ...) @log_var(i32 noundef 3, ptr noundef nonnull @.str.37, i32 noundef %6) #11
  br label %7

7:                                                ; preds = %4, %1
  %8 = tail call i32 @get_log_level() #11
  %9 = icmp sgt i32 %8, 2
  br i1 %9, label %10, label %13

10:                                               ; preds = %7
  %11 = getelementptr inbounds nuw i8, ptr %0, i64 12
  %12 = load i32, ptr %11, align 4
  tail call void (i32, ptr, ...) @log_var(i32 noundef 3, ptr noundef nonnull @.str.38, i32 noundef %12) #11
  br label %13

13:                                               ; preds = %10, %7
  %14 = tail call i32 @get_log_level() #11
  %15 = icmp sgt i32 %14, 2
  br i1 %15, label %16, label %19

16:                                               ; preds = %13
  %17 = getelementptr inbounds nuw i8, ptr %0, i64 16
  %18 = load i32, ptr %17, align 8
  tail call void (i32, ptr, ...) @log_var(i32 noundef 3, ptr noundef nonnull @.str.39, i32 noundef %18) #11
  br label %19

19:                                               ; preds = %16, %13
  %20 = tail call i32 @get_log_level() #11
  %21 = icmp sgt i32 %20, 2
  br i1 %21, label %22, label %25

22:                                               ; preds = %19
  %23 = getelementptr inbounds nuw i8, ptr %0, i64 40
  %24 = load ptr, ptr %23, align 8
  tail call void (i32, ptr, ...) @log_var(i32 noundef 3, ptr noundef nonnull @.str.40, ptr noundef %24) #11
  br label %25

25:                                               ; preds = %22, %19
  %26 = tail call i32 @get_log_level() #11
  %27 = icmp sgt i32 %26, 2
  br i1 %27, label %28, label %30

28:                                               ; preds = %25
  %29 = tail call ptr @slurm_ctime2(ptr noundef %0) #11
  tail call void (i32, ptr, ...) @log_var(i32 noundef 3, ptr noundef nonnull @.str.41, ptr noundef %29) #11
  br label %30

30:                                               ; preds = %28, %25
  %31 = tail call i32 @get_log_level() #11
  %32 = icmp sgt i32 %31, 2
  br i1 %32, label %33, label %36

33:                                               ; preds = %30
  %34 = getelementptr inbounds nuw i8, ptr %0, i64 32
  %35 = tail call ptr @slurm_ctime2(ptr noundef nonnull %34) #11
  tail call void (i32, ptr, ...) @log_var(i32 noundef 3, ptr noundef nonnull @.str.42, ptr noundef %35) #11
  br label %36

36:                                               ; preds = %33, %30
  ret void
}